; ModuleID = '45/2684.c'
source_filename = "45/2684.c"
target datalayout = "e-m:e-p270:32:32-p271:32:32-p272:64:64-i64:64-f80:128-n8:16:32:64-S128"
target triple = "x86_64-pc-linux-gnu"

@.str = private unnamed_addr constant [5 x i8] c"%s%s\00", align 1
@.str.1 = private unnamed_addr constant [3 x i8] c"%d\00", align 1

; Function Attrs: noinline nounwind uwtable
define dso_local i32 @main() #0 {
  %1 = alloca i32, align 4
  %2 = alloca i32, align 4
  %3 = alloca i32, align 4
  %4 = alloca i32, align 4
  %5 = alloca i32, align 4
  %6 = alloca i32, align 4
  %7 = alloca i32, align 4
  %8 = alloca i32, align 4
  %9 = alloca i32, align 4
  %10 = alloca [50 x i8], align 16
  %11 = alloca [50 x i8], align 16
  %12 = alloca [50 x i8], align 16
  store i32 0, i32* %1, align 4
  store i32 0, i32* %8, align 4
  %13 = bitcast [50 x i8]* %12 to i8*
  call void @llvm.memset.p0i8.i64(i8* align 16 %13, i8 0, i64 50, i1 false)
  %14 = getelementptr inbounds [50 x i8], [50 x i8]* %10, i64 0, i64 0
  %15 = getelementptr inbounds [50 x i8], [50 x i8]* %11, i64 0, i64 0
  %16 = call i32 (i8*, ...) @__isoc99_scanf(i8* getelementptr inbounds ([5 x i8], [5 x i8]* @.str, i64 0, i64 0), i8* %14, i8* %15)
  %17 = getelementptr inbounds [50 x i8], [50 x i8]* %10, i64 0, i64 0
  %18 = call i64 @strlen(i8* %17) #4
  %19 = trunc i64 %18 to i32
  store i32 %19, i32* %6, align 4
  %20 = getelementptr inbounds [50 x i8], [50 x i8]* %11, i64 0, i64 0
  %21 = call i64 @strlen(i8* %20) #4
  %22 = trunc i64 %21 to i32
  store i32 %22, i32* %7, align 4
  store i32 0, i32* %3, align 4
  store i32 0, i32* %2, align 4
  br label %23

23:                                               ; preds = %74, %0
  %24 = load i32, i32* %3, align 4
  %25 = load i32, i32* %7, align 4
  %26 = icmp slt i32 %24, %25
  br i1 %26, label %27, label %77

27:                                               ; preds = %23
  store i32 0, i32* %8, align 4
  %28 = load i32, i32* %2, align 4
  %29 = sext i32 %28 to i64
  %30 = getelementptr inbounds [50 x i8], [50 x i8]* %10, i64 0, i64 %29
  %31 = load i8, i8* %30, align 1
  %32 = sext i8 %31 to i32
  %33 = load i32, i32* %3, align 4
  %34 = sext i32 %33 to i64
  %35 = getelementptr inbounds [50 x i8], [50 x i8]* %11, i64 0, i64 %34
  %36 = load i8, i8* %35, align 1
  %37 = sext i8 %36 to i32
  %38 = icmp eq i32 %32, %37
  br i1 %38, label %39, label %73

39:                                               ; preds = %27
  %40 = load i32, i32* %2, align 4
  %41 = add nsw i32 %40, 1
  store i32 %41, i32* %4, align 4
  %42 = load i32, i32* %3, align 4
  %43 = add nsw i32 %42, 1
  store i32 %43, i32* %5, align 4
  br label %44

44:                                               ; preds = %62, %39
  %45 = load i32, i32* %4, align 4
  %46 = load i32, i32* %6, align 4
  %47 = icmp slt i32 %45, %46
  br i1 %47, label %48, label %67

48:                                               ; preds = %44
  %49 = load i32, i32* %4, align 4
  %50 = sext i32 %49 to i64
  %51 = getelementptr inbounds [50 x i8], [50 x i8]* %10, i64 0, i64 %50
  %52 = load i8, i8* %51, align 1
  %53 = sext i8 %52 to i32
  %54 = load i32, i32* %5, align 4
  %55 = sext i32 %54 to i64
  %56 = getelementptr inbounds [50 x i8], [50 x i8]* %11, i64 0, i64 %55
  %57 = load i8, i8* %56, align 1
  %58 = sext i8 %57 to i32
  %59 = icmp ne i32 %53, %58
  br i1 %59, label %60, label %61

60:                                               ; preds = %48
  store i32 1, i32* %8, align 4
  br label %61

61:                                               ; preds = %60, %48
  br label %62

62:                                               ; preds = %61
  %63 = load i32, i32* %4, align 4
  %64 = add nsw i32 %63, 1
  store i32 %64, i32* %4, align 4
  %65 = load i32, i32* %5, align 4
  %66 = add nsw i32 %65, 1
  store i32 %66, i32* %5, align 4
  br label %44

67:                                               ; preds = %44
  %68 = load i32, i32* %8, align 4
  %69 = icmp ne i32 %68, 1
  br i1 %69, label %70, label %72

70:                                               ; preds = %67
  %71 = load i32, i32* %3, align 4
  store i32 %71, i32* %9, align 4
  br label %77

72:                                               ; preds = %67
  br label %73

73:                                               ; preds = %72, %27
  br label %74

74:                                               ; preds = %73
  %75 = load i32, i32* %3, align 4
  %76 = add nsw i32 %75, 1
  store i32 %76, i32* %3, align 4
  br label %23

77:                                               ; preds = %70, %23
  %78 = load i32, i32* %9, align 4
  %79 = call i32 (i8*, ...) @printf(i8* getelementptr inbounds ([3 x i8], [3 x i8]* @.str.1, i64 0, i64 0), i32 %78)
  ret i32 0
}

; Function Attrs: argmemonly nounwind willreturn
declare void @llvm.memset.p0i8.i64(i8* nocapture writeonly, i8, i64, i1 immarg) #1

declare dso_local i32 @__isoc99_scanf(i8*, ...) #2

; Function Attrs: nounwind readonly
declare dso_local i64 @strlen(i8*) #3

declare dso_local i32 @printf(i8*, ...) #2


!llvm.module.flags = !{!0}
!llvm.ident = !{!1}

!0 = !{i32 1, !"wchar_size", i32 4}
!1 = !{!"clang version 10.0.0-4ubuntu1 "}
